Certificate:
    Data:
        Version: 3 (0x2)
        Serial Number: 9614499020408679919 (0x856d8feb54ccedef)
    Signature Algorithm: sha256WithRSAEncryption
        Issuer: C=BR, ST=Rio de Janeiro, L=Rio de Janeiro, O=Hotel Urbano DEV, OU=TI, CN=hu.dev/emailAddress=gestao.ti@hotelurbano.com.br
        Validity
            Not Before: Jul 31 22:20:51 2017 GMT
            Not After : Aug 30 22:20:51 2017 GMT
        Subject: C=BR, ST=Rio de Janeiro, L=Rio de Janeiro, O=Hotel Urbano DEV, OU=TI, CN=hu.dev/emailAddress=gestao.ti@hotelurbano.com.br
        Subject Public Key Info:
            Public Key Algorithm: rsaEncryption
                Public-Key: (4096 bit)
                Modulus:
                    00:c7:69:15:8b:5a:aa:21:25:01:7b:68:e2:76:29:
                    3f:78:df:ec:c3:e9:2c:6d:aa:ab:04:3a:20:aa:c6:
                    38:68:20:f4:c6:be:3f:d5:e0:7b:99:f8:fe:53:54:
                    2c:b8:94:ee:fe:39:32:ff:d1:ef:60:4c:4e:59:b9:
                    b7:10:7b:d6:93:37:d5:bb:b4:1d:f5:9f:1e:8e:7b:
                    b6:43:c7:a1:ed:bb:9c:ca:54:dc:55:f5:ef:1c:16:
                    bd:e2:dd:cb:07:67:17:5e:12:59:a4:7e:b3:84:ef:
                    5a:b1:8b:df:c7:81:ba:51:0d:b7:b9:26:00:3b:56:
                    13:b8:95:93:75:46:e6:53:fc:2a:01:cc:28:f5:ce:
                    7e:7d:29:7f:9e:67:a6:67:ce:bf:1a:7e:f8:b3:57:
                    62:75:47:b9:37:cd:9e:3c:5d:5a:72:72:ae:08:65:
                    41:6a:09:c9:81:95:85:a8:5b:37:45:eb:0d:ba:0b:
                    93:84:05:91:72:a1:65:3b:52:fb:3c:2d:d9:01:08:
                    9a:bd:01:da:d8:8b:40:5e:7d:23:be:b0:b8:4f:08:
                    d4:6e:eb:0e:0e:f7:83:f8:b5:48:3e:a7:ae:1f:48:
                    bb:cb:6d:49:ff:9c:a6:46:48:2a:c2:e5:77:f6:95:
                    eb:fc:65:98:9a:4e:d3:29:29:3e:9a:25:2f:40:0a:
                    a2:1a:c4:40:96:73:66:c9:73:89:ba:29:c6:a3:65:
                    57:be:bf:bb:3f:05:5a:ba:f3:b4:d9:03:5a:c3:a9:
                    7a:d9:f8:48:2f:57:a3:96:9d:80:8c:a7:31:4d:b7:
                    66:d3:80:b7:cc:f2:19:ca:23:a1:6d:c1:b7:9d:a4:
                    00:74:04:a5:79:f5:79:e2:2b:8d:8f:99:31:fb:0c:
                    3c:db:17:b0:22:18:7e:9c:5c:d2:4d:75:6b:fc:f4:
                    6b:b4:35:90:4c:61:e5:0a:14:90:c9:99:21:61:f7:
                    cc:30:3a:ce:c5:e5:1d:71:55:af:64:61:05:a8:00:
                    75:6b:1b:db:58:84:93:9f:50:3d:32:55:c4:7a:6a:
                    2f:0a:3b:f0:60:0f:0b:ab:23:82:e9:49:d6:9e:57:
                    ae:8d:0c:73:08:50:2c:d8:4b:e9:61:4d:81:78:49:
                    cb:28:c4:29:03:a5:fa:48:28:bd:c5:5b:cd:d9:a3:
                    98:b3:dc:e5:11:1c:59:74:0e:b1:12:34:0f:17:f9:
                    7c:be:ad:d8:be:58:3e:45:cb:cc:9a:a6:25:9f:ec:
                    89:fb:1f:0e:0e:2c:15:ba:a0:0f:81:ac:f4:b4:cb:
                    d8:75:ba:2d:d3:2a:3e:c9:42:57:c0:2a:75:32:c0:
                    80:2a:4a:6d:81:e4:1e:a0:97:8c:32:47:02:17:d5:
                    3f:ed:73
                Exponent: 65537 (0x10001)
        X509v3 extensions:
            X509v3 Subject Key Identifier: 
                94:C6:5D:AF:1D:9E:ED:7E:3B:78:6F:E9:E8:BA:6A:01:81:D0:27:7C
            X509v3 Authority Key Identifier: 
                keyid:94:C6:5D:AF:1D:9E:ED:7E:3B:78:6F:E9:E8:BA:6A:01:81:D0:27:7C

            X509v3 Basic Constraints: 
                CA:TRUE
    Signature Algorithm: sha256WithRSAEncryption
         73:f5:a2:2a:06:23:27:26:32:8d:93:b0:e6:9a:17:4c:77:6c:
         70:e4:20:fa:55:58:77:f3:96:3c:7c:7d:f4:c5:73:d7:ef:14:
         85:56:2e:98:e0:9a:c4:13:ac:cd:1d:1d:1a:fc:48:71:80:9c:
         c6:c6:76:68:12:6d:59:f0:33:70:a3:58:2f:88:fe:ad:67:37:
         33:04:a0:f6:28:85:4d:2a:1d:f7:19:f4:11:de:1a:cf:78:eb:
         b5:2f:dd:35:df:da:c3:81:1e:13:28:9a:fa:35:ba:ad:74:0a:
         43:5a:f6:b6:b5:f0:d9:66:3f:35:95:77:e2:58:ec:7d:93:41:
         cd:a4:57:84:4e:3d:73:10:6a:70:a2:2a:b1:2e:d1:40:b2:e2:
         fc:23:7a:db:d8:2a:4d:69:99:b9:b8:1a:e1:cb:f1:76:35:b2:
         95:ad:b4:6b:c1:bd:e9:6d:44:c2:b0:5a:c3:79:2d:ad:db:03:
         ca:10:5c:70:46:03:3b:d5:61:74:c3:aa:2a:5d:40:7e:c1:dd:
         39:ce:26:4c:69:95:5c:9d:a9:92:dd:e6:52:60:37:79:18:67:
         80:44:7a:92:16:65:19:1d:da:ce:6d:15:92:34:a7:31:0e:09:
         aa:f2:d7:f1:d7:a1:53:af:5d:c8:9f:b6:95:86:1c:11:97:12:
         2e:2a:87:e1:94:29:96:7d:3b:40:b9:f3:11:f8:fe:66:89:34:
         ea:85:33:00:10:74:ec:c9:0f:f6:a7:9f:d0:d3:ee:d9:8a:cf:
         5e:05:bd:85:94:83:f8:08:6d:fc:e5:23:58:59:2c:f4:eb:86:
         f3:83:ac:e3:a6:84:53:ac:2d:56:ad:ae:16:82:18:da:fc:15:
         50:13:5a:02:72:8b:4b:86:35:17:2a:0a:73:78:b3:96:0c:f2:
         0b:f9:18:9a:1d:6a:bf:a7:98:b9:b5:49:72:f4:dd:b4:af:bb:
         a8:23:db:11:a6:57:b7:af:f7:cd:cf:42:da:15:e6:97:f0:d1:
         7e:4d:42:8e:2a:0c:a4:19:bd:98:88:fe:b8:7d:f5:a9:69:ed:
         70:4a:fb:2f:73:87:39:c8:4f:f9:17:85:50:95:05:53:08:9e:
         7e:55:1f:3a:52:48:5d:37:5c:5b:2b:8a:9c:cd:e1:69:83:0c:
         bf:2b:81:41:e6:d0:44:96:37:ea:a1:f1:ff:35:d7:55:7a:9e:
         6d:35:f0:1d:63:25:a9:2c:e7:84:a8:b6:88:48:43:a6:80:ea:
         0e:99:19:b0:4f:d5:d2:cd:a0:77:9c:ca:13:0c:3f:54:59:29:
         c9:51:74:fe:0c:a0:f6:8d:09:c4:c4:15:c7:21:74:d0:97:8a:
         dc:9b:6a:86:04:33:af:04
-----BEGIN CERTIFICATE-----
MIIGHzCCBAegAwIBAgIJAIVtj+tUzO3vMA0GCSqGSIb3DQEBCwUAMIGlMQswCQYD
VQQGEwJCUjEXMBUGA1UECAwOUmlvIGRlIEphbmVpcm8xFzAVBgNVBAcMDlJpbyBk
ZSBKYW5laXJvMRkwFwYDVQQKDBBIb3RlbCBVcmJhbm8gREVWMQswCQYDVQQLDAJU
STEPMA0GA1UEAwwGaHUuZGV2MSswKQYJKoZIhvcNAQkBFhxnZXN0YW8udGlAaG90
ZWx1cmJhbm8uY29tLmJyMB4XDTE3MDczMTIyMjA1MVoXDTE3MDgzMDIyMjA1MVow
gaUxCzAJBgNVBAYTAkJSMRcwFQYDVQQIDA5SaW8gZGUgSmFuZWlybzEXMBUGA1UE
BwwOUmlvIGRlIEphbmVpcm8xGTAXBgNVBAoMEEhvdGVsIFVyYmFubyBERVYxCzAJ
BgNVBAsMAlRJMQ8wDQYDVQQDDAZodS5kZXYxKzApBgkqhkiG9w0BCQEWHGdlc3Rh
by50aUBob3RlbHVyYmFuby5jb20uYnIwggIiMA0GCSqGSIb3DQEBAQUAA4ICDwAw
ggIKAoICAQDHaRWLWqohJQF7aOJ2KT943+zD6SxtqqsEOiCqxjhoIPTGvj/V4HuZ
+P5TVCy4lO7+OTL/0e9gTE5ZubcQe9aTN9W7tB31nx6Oe7ZDx6Htu5zKVNxV9e8c
Fr3i3csHZxdeElmkfrOE71qxi9/HgbpRDbe5JgA7VhO4lZN1RuZT/CoBzCj1zn59
KX+eZ6Znzr8afvizV2J1R7k3zZ48XVpycq4IZUFqCcmBlYWoWzdF6w26C5OEBZFy
oWU7Uvs8LdkBCJq9AdrYi0BefSO+sLhPCNRu6w4O94P4tUg+p64fSLvLbUn/nKZG
SCrC5Xf2lev8ZZiaTtMpKT6aJS9ACqIaxECWc2bJc4m6KcajZVe+v7s/BVq687TZ
A1rDqXrZ+EgvV6OWnYCMpzFNt2bTgLfM8hnKI6FtwbedpAB0BKV59XniK42PmTH7
DDzbF7AiGH6cXNJNdWv89Gu0NZBMYeUKFJDJmSFh98wwOs7F5R1xVa9kYQWoAHVr
G9tYhJOfUD0yVcR6ai8KO/BgDwurI4LpSdaeV66NDHMIUCzYS+lhTYF4ScsoxCkD
pfpIKL3FW83Zo5iz3OURHFl0DrESNA8X+Xy+rdi+WD5Fy8yapiWf7In7Hw4OLBW6
oA+BrPS0y9h1ui3TKj7JQlfAKnUywIAqSm2B5B6gl4wyRwIX1T/tcwIDAQABo1Aw
TjAdBgNVHQ4EFgQUlMZdrx2e7X47eG/p6LpqAYHQJ3wwHwYDVR0jBBgwFoAUlMZd
rx2e7X47eG/p6LpqAYHQJ3wwDAYDVR0TBAUwAwEB/zANBgkqhkiG9w0BAQsFAAOC
AgEAc/WiKgYjJyYyjZOw5poXTHdscOQg+lVYd/OWPHx99MVz1+8UhVYumOCaxBOs
zR0dGvxIcYCcxsZ2aBJtWfAzcKNYL4j+rWc3MwSg9iiFTSod9xn0Ed4az3jrtS/d
Nd/aw4EeEyia+jW6rXQKQ1r2trXw2WY/NZV34ljsfZNBzaRXhE49cxBqcKIqsS7R
QLLi/CN629gqTWmZubga4cvxdjWyla20a8G96W1EwrBaw3ktrdsDyhBccEYDO9Vh
dMOqKl1AfsHdOc4mTGmVXJ2pkt3mUmA3eRhngER6khZlGR3azm0VkjSnMQ4JqvLX
8dehU69dyJ+2lYYcEZcSLiqH4ZQpln07QLnzEfj+Zok06oUzABB07MkP9qef0NPu
2YrPXgW9hZSD+Aht/OUjWFks9OuG84Os46aEU6wtVq2uFoIY2vwVUBNaAnKLS4Y1
FyoKc3izlgzyC/kYmh1qv6eYubVJcvTdtK+7qCPbEaZXt6/3zc9C2hXml/DRfk1C
jioMpBm9mIj+uH31qWntcEr7L3OHOchP+ReFUJUFUwieflUfOlJIXTdcWyuKnM3h
aYMMvyuBQebQRJY36qHx/zXXVXqebTXwHWMlqSznhKi2iEhDpoDqDpkZsE/V0s2g
d5zKEww/VFkpyVF0/gyg9o0JxMQVxyF00JeK3JtqhgQzrwQ=
-----END CERTIFICATE-----
